; Function Attrs: nofree nounwind memory(argmem: read) uwtable
define internal fastcc i32 @internal_bpchar_pattern_compare(ptr noundef readonly captures(none) %0, ptr noundef readonly captures(none) %1) unnamed_addr #8 {
  %3 = load i8, ptr %0, align 1
  %4 = zext i8 %3 to i32
  %5 = and i32 %4, 1
  %.not.i = icmp eq i32 %5, 0
  %6 = getelementptr inbounds nuw i8, ptr %0, i64 1
  %7 = icmp eq i8 %3, 1
  br i1 %7, label %8, label %16

8:                                                ; preds = %2
  %9 = load i8, ptr %6, align 1
  %10 = icmp eq i8 %9, 1
  %11 = and i8 %9, -2
  %12 = icmp eq i8 %11, 2
  %or.cond.i = or i1 %10, %12
  %13 = icmp eq i8 %9, 18
  %14 = select i1 %13, i32 16, i32 0
  %15 = select i1 %or.cond.i, i32 8, i32 %14
  br label %24

16:                                               ; preds = %2
  br i1 %.not.i, label %20, label %17

17:                                               ; preds = %16
  %18 = lshr i32 %4, 1
  %19 = add nsw i32 %18, -1
  br label %24

20:                                               ; preds = %16
  %21 = load i32, ptr %0, align 4
  %22 = lshr i32 %21, 2
  %23 = add nsw i32 %22, -4
  br label %24

24:                                               ; preds = %20, %17, %8
  %25 = phi i32 [ %15, %8 ], [ %19, %17 ], [ %23, %20 ]
  %26 = getelementptr inbounds nuw i8, ptr %0, i64 4
  %27 = select i1 %.not.i, ptr %26, ptr %6
  %28 = zext i32 %25 to i64
  %29 = tail call i32 @llvm.smin.i32(i32 %25, i32 0)
  br label %30

30:                                               ; preds = %33, %24
  %indvars.iv.i.i = phi i64 [ %indvars.iv.next.i.i, %33 ], [ %28, %24 ]
  %indvars.iv.next.i.i = add nsw i64 %indvars.iv.i.i, -1
  %31 = and i64 %indvars.iv.next.i.i, 2147483648
  %32 = icmp eq i64 %31, 0
  br i1 %32, label %33, label %bcTruelen.exit

33:                                               ; preds = %30
  %34 = and i64 %indvars.iv.next.i.i, 2147483647
  %35 = getelementptr inbounds nuw i8, ptr %27, i64 %34
  %36 = load i8, ptr %35, align 1
  %.not.i.i = icmp eq i8 %36, 32
  br i1 %.not.i.i, label %30, label %.split.loop.exit.i.i, !llvm.loop !12

.split.loop.exit.i.i:                             ; preds = %33
  %37 = trunc nuw i64 %indvars.iv.i.i to i32
  br label %bcTruelen.exit

bcTruelen.exit:                                   ; preds = %30, %.split.loop.exit.i.i
  %.0.in.lcssa.i.i = phi i32 [ %37, %.split.loop.exit.i.i ], [ %29, %30 ]
  %38 = load i8, ptr %1, align 1
  %39 = zext i8 %38 to i32
  %40 = and i32 %39, 1
  %.not.i24 = icmp eq i32 %40, 0
  %41 = getelementptr inbounds nuw i8, ptr %1, i64 1
  %42 = icmp eq i8 %38, 1
  br i1 %42, label %43, label %51

43:                                               ; preds = %bcTruelen.exit
  %44 = load i8, ptr %41, align 1
  %45 = icmp eq i8 %44, 1
  %46 = and i8 %44, -2
  %47 = icmp eq i8 %46, 2
  %or.cond.i30 = or i1 %45, %47
  %48 = icmp eq i8 %44, 18
  %49 = select i1 %48, i32 16, i32 0
  %50 = select i1 %or.cond.i30, i32 8, i32 %49
  br label %59

51:                                               ; preds = %bcTruelen.exit
  br i1 %.not.i24, label %55, label %52

52:                                               ; preds = %51
  %53 = lshr i32 %39, 1
  %54 = add nsw i32 %53, -1
  br label %59

55:                                               ; preds = %51
  %56 = load i32, ptr %1, align 4
  %57 = lshr i32 %56, 2
  %58 = add nsw i32 %57, -4
  br label %59

59:                                               ; preds = %55, %52, %43
  %60 = phi i32 [ %50, %43 ], [ %54, %52 ], [ %58, %55 ]
  %61 = getelementptr inbounds nuw i8, ptr %1, i64 4
  %62 = select i1 %.not.i24, ptr %61, ptr %41
  %63 = zext i32 %60 to i64
  %64 = tail call i32 @llvm.smin.i32(i32 %60, i32 0)
  br label %65

65:                                               ; preds = %68, %59
  %indvars.iv.i.i25 = phi i64 [ %indvars.iv.next.i.i26, %68 ], [ %63, %59 ]
  %indvars.iv.next.i.i26 = add nsw i64 %indvars.iv.i.i25, -1
  %66 = and i64 %indvars.iv.next.i.i26, 2147483648
  %67 = icmp eq i64 %66, 0
  br i1 %67, label %68, label %bcTruelen.exit31

68:                                               ; preds = %65
  %69 = and i64 %indvars.iv.next.i.i26, 2147483647
  %70 = getelementptr inbounds nuw i8, ptr %62, i64 %69
  %71 = load i8, ptr %70, align 1
  %.not.i.i28 = icmp eq i8 %71, 32
  br i1 %.not.i.i28, label %65, label %.split.loop.exit.i.i29, !llvm.loop !12

.split.loop.exit.i.i29:                           ; preds = %68
  %72 = trunc nuw i64 %indvars.iv.i.i25 to i32
  br label %bcTruelen.exit31

bcTruelen.exit31:                                 ; preds = %65, %.split.loop.exit.i.i29
  %.0.in.lcssa.i.i27 = phi i32 [ %72, %.split.loop.exit.i.i29 ], [ %64, %65 ]
  %73 = and i8 %3, 1
  %.not = icmp eq i8 %73, 0
  %.v = select i1 %.not, i64 4, i64 1
  %74 = getelementptr inbounds nuw i8, ptr %0, i64 %.v
  %75 = and i8 %38, 1
  %.not21 = icmp eq i8 %75, 0
  %.v22 = select i1 %.not21, i64 4, i64 1
  %76 = getelementptr inbounds nuw i8, ptr %1, i64 %.v22
  %77 = tail call i32 @llvm.smin.i32(i32 %.0.in.lcssa.i.i, i32 %.0.in.lcssa.i.i27)
  %78 = sext i32 %77 to i64
  %79 = tail call i32 @memcmp(ptr noundef nonnull %74, ptr noundef nonnull %76, i64 noundef %78) #12
  %.not23 = icmp eq i32 %79, 0
  br i1 %.not23, label %80, label %84

80:                                               ; preds = %bcTruelen.exit31
  %81 = icmp slt i32 %.0.in.lcssa.i.i, %.0.in.lcssa.i.i27
  br i1 %81, label %84, label %82

82:                                               ; preds = %80
  %83 = icmp sgt i32 %.0.in.lcssa.i.i, %.0.in.lcssa.i.i27
  %. = zext i1 %83 to i32
  br label %84

84:                                               ; preds = %82, %80, %bcTruelen.exit31
  %.0 = phi i32 [ %79, %bcTruelen.exit31 ], [ -1, %80 ], [ %., %82 ]
  ret i32 %.0
}